; Function Attrs: nofree norecurse nosync nounwind memory(read, inaccessiblemem: none) uwtable
define internal fastcc noundef zeroext i1 @string_field_used(ptr noundef readonly captures(none) %0, ptr noundef nonnull readnone captures(address) %1) unnamed_addr #7 {
  %3 = getelementptr inbounds nuw i8, ptr %0, i64 144
  %4 = load ptr, ptr %3, align 8
  %5 = load ptr, ptr %4, align 8
  %6 = icmp eq ptr %1, %5
  br i1 %6, label %.loopexit, label %7

7:                                                ; preds = %2
  %8 = getelementptr inbounds nuw i8, ptr %0, i64 184
  %9 = load ptr, ptr %8, align 8
  %10 = icmp eq ptr %1, %9
  br i1 %10, label %.loopexit, label %11

11:                                               ; preds = %7
  %12 = getelementptr inbounds nuw i8, ptr %0, i64 152
  %13 = load ptr, ptr %12, align 8
  %14 = icmp eq ptr %1, %13
  br i1 %14, label %.loopexit, label %15

15:                                               ; preds = %11
  %16 = getelementptr inbounds nuw i8, ptr %0, i64 72
  br label %17

17:                                               ; preds = %22, %15
  %.0.in = phi ptr [ %16, %15 ], [ %.0, %22 ]
  %.0 = load ptr, ptr %.0.in, align 8
  %.not.not.not = icmp ne ptr %.0, null
  br i1 %.not.not.not, label %18, label %.loopexit

18:                                               ; preds = %17
  %19 = getelementptr inbounds nuw i8, ptr %.0, i64 40
  %20 = load ptr, ptr %19, align 8
  %21 = icmp eq ptr %1, %20
  br i1 %21, label %.loopexit, label %22

22:                                               ; preds = %18
  %23 = getelementptr inbounds nuw i8, ptr %.0, i64 56
  %24 = load ptr, ptr %23, align 8
  %25 = icmp eq ptr %1, %24
  br i1 %25, label %.loopexit, label %17, !llvm.loop !33

.loopexit:                                        ; preds = %17, %18, %22, %2, %7, %11
  %.014 = phi i1 [ true, %11 ], [ true, %7 ], [ true, %2 ], [ %.not.not.not, %22 ], [ %.not.not.not, %18 ], [ %.not.not.not, %17 ]
  ret i1 %.014
}